; ModuleID = '16/632.c'
source_filename = "16/632.c"
target datalayout = "e-m:e-p270:32:32-p271:32:32-p272:64:64-i64:64-f80:128-n8:16:32:64-S128"
target triple = "x86_64-pc-linux-gnu"

@.str = private unnamed_addr constant [3 x i8] c"%d\00", align 1
@.str.1 = private unnamed_addr constant [5 x i8] c"%d%d\00", align 1
@.str.2 = private unnamed_addr constant [7 x i8] c"%d%d%d\00", align 1
@.str.3 = private unnamed_addr constant [9 x i8] c"%d%d%d%d\00", align 1

; Function Attrs: noinline nounwind uwtable
define dso_local i32 @main() #0 {
  %1 = alloca i32, align 4
  %2 = alloca i32, align 4
  store i32 0, i32* %1, align 4
  %3 = call i32 (i8*, ...) @__isoc99_scanf(i8* getelementptr inbounds ([3 x i8], [3 x i8]* @.str, i64 0, i64 0), i32* %2)
  %4 = load i32, i32* %2, align 4
  %5 = sdiv i32 %4, 10
  %6 = icmp eq i32 %5, 0
  br i1 %6, label %7, label %10

7:                                                ; preds = %0
  %8 = load i32, i32* %2, align 4
  %9 = call i32 (i8*, ...) @printf(i8* getelementptr inbounds ([3 x i8], [3 x i8]* @.str, i64 0, i64 0), i32 %8)
  br label %47

10:                                               ; preds = %0
  %11 = load i32, i32* %2, align 4
  %12 = sdiv i32 %11, 100
  %13 = icmp eq i32 %12, 0
  br i1 %13, label %14, label %20

14:                                               ; preds = %10
  %15 = load i32, i32* %2, align 4
  %16 = srem i32 %15, 10
  %17 = load i32, i32* %2, align 4
  %18 = sdiv i32 %17, 10
  %19 = call i32 (i8*, ...) @printf(i8* getelementptr inbounds ([5 x i8], [5 x i8]* @.str.1, i64 0, i64 0), i32 %16, i32 %18)
  br label %46

20:                                               ; preds = %10
  %21 = load i32, i32* %2, align 4
  %22 = sdiv i32 %21, 1000
  %23 = icmp eq i32 %22, 0
  br i1 %23, label %24, label %33

24:                                               ; preds = %20
  %25 = load i32, i32* %2, align 4
  %26 = srem i32 %25, 10
  %27 = load i32, i32* %2, align 4
  %28 = srem i32 %27, 100
  %29 = sdiv i32 %28, 10
  %30 = load i32, i32* %2, align 4
  %31 = sdiv i32 %30, 100
  %32 = call i32 (i8*, ...) @printf(i8* getelementptr inbounds ([7 x i8], [7 x i8]* @.str.2, i64 0, i64 0), i32 %26, i32 %29, i32 %31)
  br label %45

33:                                               ; preds = %20
  %34 = load i32, i32* %2, align 4
  %35 = srem i32 %34, 10
  %36 = load i32, i32* %2, align 4
  %37 = srem i32 %36, 100
  %38 = sdiv i32 %37, 10
  %39 = load i32, i32* %2, align 4
  %40 = srem i32 %39, 1000
  %41 = sdiv i32 %40, 100
  %42 = load i32, i32* %2, align 4
  %43 = sdiv i32 %42, 1000
  %44 = call i32 (i8*, ...) @printf(i8* getelementptr inbounds ([9 x i8], [9 x i8]* @.str.3, i64 0, i64 0), i32 %35, i32 %38, i32 %41, i32 %43)
  br label %45

45:                                               ; preds = %33, %24
  br label %46

46:                                               ; preds = %45, %14
  br label %47

47:                                               ; preds = %46, %7
  ret i32 0
}

declare dso_local i32 @__isoc99_scanf(i8*, ...) #1

declare dso_local i32 @printf(i8*, ...) #1


!llvm.module.flags = !{!0}
!llvm.ident = !{!1}

!0 = !{i32 1, !"wchar_size", i32 4}
!1 = !{!"clang version 10.0.0-4ubuntu1 "}
