; ModuleID = 'source-C-CXX/15/632.c'
source_filename = "source-C-CXX/15/632.c"
target datalayout = "e-m:e-p270:32:32-p271:32:32-p272:64:64-i64:64-f80:128-n8:16:32:64-S128"
target triple = "x86_64-pc-linux-gnu"

@.str = private unnamed_addr constant [3 x i8] c"%d\00", align 1
@.str.1 = private unnamed_addr constant [5 x i8] c"%d%d\00", align 1
@.str.2 = private unnamed_addr constant [7 x i8] c"%d%d%d\00", align 1
@.str.3 = private unnamed_addr constant [9 x i8] c"%d%d%d%d\00", align 1

; Function Attrs: nofree nounwind sspstrong uwtable
define dso_local i32 @main() local_unnamed_addr #0 {
  %1 = alloca i32, align 4
  %2 = bitcast i32* %1 to i8*
  call void @llvm.lifetime.start.p0i8(i64 4, i8* nonnull %2) #3
  %3 = call i32 (i8*, ...) @__isoc99_scanf(i8* getelementptr inbounds ([3 x i8], [3 x i8]* @.str, i64 0, i64 0), i32* nonnull %1)
  %4 = load i32, i32* %1, align 4, !tbaa !5
  %5 = sdiv i32 %4, 10
  %6 = srem i32 %4, 10
  %7 = add i32 %4, 9
  %8 = icmp ult i32 %7, 19
  br i1 %8, label %9, label %11

9:                                                ; preds = %0
  %10 = call i32 (i8*, ...) @printf(i8* nonnull dereferenceable(1) getelementptr inbounds ([3 x i8], [3 x i8]* @.str, i64 0, i64 0), i32 %4)
  br label %43

11:                                               ; preds = %0
  %12 = sdiv i32 %4, 100
  %13 = srem i32 %4, 100
  %14 = add i32 %4, 99
  %15 = icmp ult i32 %14, 199
  br i1 %15, label %16, label %21

16:                                               ; preds = %11
  %17 = trunc i32 %4 to i8
  %18 = srem i8 %17, 10
  %19 = sext i8 %18 to i32
  %20 = call i32 (i8*, ...) @printf(i8* nonnull dereferenceable(1) getelementptr inbounds ([5 x i8], [5 x i8]* @.str.1, i64 0, i64 0), i32 %19, i32 %5)
  br label %43

21:                                               ; preds = %11
  %22 = add i32 %4, 999
  %23 = icmp ult i32 %22, 1999
  br i1 %23, label %24, label %33

24:                                               ; preds = %21
  %25 = trunc i32 %4 to i16
  %26 = srem i16 %25, 10
  %27 = sext i16 %26 to i32
  %28 = srem i16 %25, 100
  %29 = trunc i16 %28 to i8
  %30 = sdiv i8 %29, 10
  %31 = sext i8 %30 to i32
  %32 = call i32 (i8*, ...) @printf(i8* nonnull dereferenceable(1) getelementptr inbounds ([7 x i8], [7 x i8]* @.str.2, i64 0, i64 0), i32 %27, i32 %31, i32 %12)
  br label %43

33:                                               ; preds = %21
  %34 = sdiv i32 %4, 1000
  %35 = trunc i32 %13 to i8
  %36 = sdiv i8 %35, 10
  %37 = sext i8 %36 to i32
  %38 = srem i32 %4, 1000
  %39 = trunc i32 %38 to i16
  %40 = sdiv i16 %39, 100
  %41 = sext i16 %40 to i32
  %42 = call i32 (i8*, ...) @printf(i8* nonnull dereferenceable(1) getelementptr inbounds ([9 x i8], [9 x i8]* @.str.3, i64 0, i64 0), i32 %6, i32 %37, i32 %41, i32 %34)
  br label %43

43:                                               ; preds = %16, %33, %24, %9
  call void @llvm.lifetime.end.p0i8(i64 4, i8* nonnull %2) #3
  ret i32 0
}

; Function Attrs: argmemonly mustprogress nofree nosync nounwind willreturn
declare void @llvm.lifetime.start.p0i8(i64 immarg, i8* nocapture) #1

; Function Attrs: nofree nounwind
declare noundef i32 @__isoc99_scanf(i8* nocapture noundef readonly, ...) local_unnamed_addr #2

; Function Attrs: nofree nounwind
declare noundef i32 @printf(i8* nocapture noundef readonly, ...) local_unnamed_addr #2

; Function Attrs: argmemonly mustprogress nofree nosync nounwind willreturn
declare void @llvm.lifetime.end.p0i8(i64 immarg, i8* nocapture) #1


!llvm.module.flags = !{!0, !1, !2, !3}
!llvm.ident = !{!4}

!0 = !{i32 1, !"wchar_size", i32 4}
!1 = !{i32 7, !"PIC Level", i32 2}
!2 = !{i32 7, !"PIE Level", i32 2}
!3 = !{i32 7, !"uwtable", i32 1}
!4 = !{!"clang version 13.0.0"}
!5 = !{!6, !6, i64 0}
!6 = !{!"int", !7, i64 0}
!7 = !{!"omnipotent char", !8, i64 0}
!8 = !{!"Simple C/C++ TBAA"}
